; Function Attrs: nounwind uwtable
define hidden ptr @nghttp2_frame_iv_copy(ptr noundef readonly captures(none) %0, i64 noundef %1, ptr noundef %2) local_unnamed_addr #0 {
  %4 = shl i64 %1, 3
  %5 = icmp eq i64 %4, 0
  br i1 %5, label %10, label %6

6:                                                ; preds = %3
  %7 = tail call ptr @nghttp2_mem_malloc(ptr noundef %2, i64 noundef %4) #18
  %8 = icmp eq ptr %7, null
  br i1 %8, label %10, label %9

9:                                                ; preds = %6
  tail call void @llvm.memcpy.p0.p0.i64(ptr nonnull align 4 %7, ptr align 4 %0, i64 %4, i1 false)
  br label %10

10:                                               ; preds = %6, %3, %9
  %.0 = phi ptr [ %7, %9 ], [ null, %3 ], [ null, %6 ]
  ret ptr %.0
}